; ModuleID = 'source-C-CXX/56/1414.c'
source_filename = "source-C-CXX/56/1414.c"
target datalayout = "e-m:e-p270:32:32-p271:32:32-p272:64:64-i64:64-f80:128-n8:16:32:64-S128"
target triple = "x86_64-pc-linux-gnu"

@.str = private unnamed_addr constant [3 x i8] c"%d\00", align 1
@.str.1 = private unnamed_addr constant [3 x i8] c"%s\00", align 1

; Function Attrs: nofree nounwind sspstrong uwtable
define dso_local i32 @main() local_unnamed_addr #0 {
  %1 = alloca i32, align 4
  %2 = alloca [32 x i8], align 16
  %3 = bitcast i32* %1 to i8*
  call void @llvm.lifetime.start.p0i8(i64 4, i8* nonnull %3) #4
  %4 = getelementptr inbounds [32 x i8], [32 x i8]* %2, i64 0, i64 0
  call void @llvm.lifetime.start.p0i8(i64 32, i8* nonnull %4) #4
  %5 = call i32 (i8*, ...) @__isoc99_scanf(i8* getelementptr inbounds ([3 x i8], [3 x i8]* @.str, i64 0, i64 0), i32* nonnull %1)
  %6 = load i32, i32* %1, align 4, !tbaa !5
  %7 = icmp sgt i32 %6, 0
  br i1 %7, label %8, label %29

8:                                                ; preds = %0, %24
  %9 = phi i32 [ %26, %24 ], [ 0, %0 ]
  %10 = call i32 (i8*, ...) @__isoc99_scanf(i8* getelementptr inbounds ([3 x i8], [3 x i8]* @.str.1, i64 0, i64 0), i8* nonnull %4)
  br label %11

11:                                               ; preds = %11, %8
  %12 = phi i8* [ %4, %8 ], [ %15, %11 ]
  %13 = load i8, i8* %12, align 1, !tbaa !9
  %14 = icmp eq i8 %13, 0
  %15 = getelementptr inbounds i8, i8* %12, i64 1
  br i1 %14, label %16, label %11, !llvm.loop !10

16:                                               ; preds = %11
  %17 = getelementptr inbounds i8, i8* %12, i64 -1
  %18 = load i8, i8* %17, align 1, !tbaa !9
  %19 = sext i8 %18 to i32
  switch i32 %19, label %24 [
    i32 114, label %21
    i32 121, label %21
    i32 103, label %20
  ]

20:                                               ; preds = %16
  br label %21

21:                                               ; preds = %16, %16, %20
  %22 = phi i64 [ -3, %20 ], [ -2, %16 ], [ -2, %16 ]
  %23 = getelementptr inbounds i8, i8* %12, i64 %22
  store i8 0, i8* %23, align 1, !tbaa !9
  br label %24

24:                                               ; preds = %21, %16
  %25 = call i32 @puts(i8* nonnull %4)
  %26 = add nuw nsw i32 %9, 1
  %27 = load i32, i32* %1, align 4, !tbaa !5
  %28 = icmp slt i32 %26, %27
  br i1 %28, label %8, label %29, !llvm.loop !12

29:                                               ; preds = %24, %0
  call void @llvm.lifetime.end.p0i8(i64 32, i8* nonnull %4) #4
  call void @llvm.lifetime.end.p0i8(i64 4, i8* nonnull %3) #4
  ret i32 0
}

; Function Attrs: argmemonly mustprogress nofree nosync nounwind willreturn
declare void @llvm.lifetime.start.p0i8(i64 immarg, i8* nocapture) #1

; Function Attrs: nofree nounwind
declare noundef i32 @__isoc99_scanf(i8* nocapture noundef readonly, ...) local_unnamed_addr #2

; Function Attrs: argmemonly mustprogress nofree nosync nounwind willreturn
declare void @llvm.lifetime.end.p0i8(i64 immarg, i8* nocapture) #1

; Function Attrs: nofree nounwind
declare noundef i32 @puts(i8* nocapture noundef readonly) local_unnamed_addr #3


!llvm.module.flags = !{!0, !1, !2, !3}
!llvm.ident = !{!4}

!0 = !{i32 1, !"wchar_size", i32 4}
!1 = !{i32 7, !"PIC Level", i32 2}
!2 = !{i32 7, !"PIE Level", i32 2}
!3 = !{i32 7, !"uwtable", i32 1}
!4 = !{!"clang version 13.0.0"}
!5 = !{!6, !6, i64 0}
!6 = !{!"int", !7, i64 0}
!7 = !{!"omnipotent char", !8, i64 0}
!8 = !{!"Simple C/C++ TBAA"}
!9 = !{!7, !7, i64 0}
!10 = distinct !{!10, !11}
!11 = !{!"llvm.loop.mustprogress"}
!12 = distinct !{!12, !11}
